; ModuleID = 'source-C-CXX/24/354.cpp'
source_filename = "source-C-CXX/24/354.cpp"
target datalayout = "e-m:e-p270:32:32-p271:32:32-p272:64:64-i64:64-f80:128-n8:16:32:64-S128"
target triple = "x86_64-pc-linux-gnu"

%"class.std::ios_base::Init" = type { i8 }
%"class.std::basic_istream" = type { i32 (...)**, i64, %"class.std::basic_ios" }
%"class.std::basic_ios" = type { %"class.std::ios_base", %"class.std::basic_ostream"*, i8, i8, %"class.std::basic_streambuf"*, %"class.std::ctype"*, %"class.std::num_put"*, %"class.std::num_get"* }
%"class.std::ios_base" = type { i32 (...)**, i64, i64, i32, i32, i32, %"struct.std::ios_base::_Callback_list"*, %"struct.std::ios_base::_Words", [8 x %"struct.std::ios_base::_Words"], i32, %"struct.std::ios_base::_Words"*, %"class.std::locale" }
%"struct.std::ios_base::_Callback_list" = type { %"struct.std::ios_base::_Callback_list"*, void (i32, %"class.std::ios_base"*, i32)*, i32, i32 }
%"struct.std::ios_base::_Words" = type { i8*, i64 }
%"class.std::locale" = type { %"class.std::locale::_Impl"* }
%"class.std::locale::_Impl" = type { i32, %"class.std::locale::facet"**, i64, %"class.std::locale::facet"**, i8** }
%"class.std::locale::facet" = type <{ i32 (...)**, i32, [4 x i8] }>
%"class.std::basic_ostream" = type { i32 (...)**, %"class.std::basic_ios" }
%"class.std::basic_streambuf" = type { i32 (...)**, i8*, i8*, i8*, i8*, i8*, i8*, %"class.std::locale" }
%"class.std::ctype" = type <{ %"class.std::locale::facet.base", [4 x i8], %struct.__locale_struct*, i8, [7 x i8], i32*, i32*, i16*, i8, [256 x i8], [256 x i8], i8, [6 x i8] }>
%"class.std::locale::facet.base" = type <{ i32 (...)**, i32 }>
%struct.__locale_struct = type { [13 x %struct.__locale_data*], i16*, i32*, i32*, [13 x i8*] }
%struct.__locale_data = type opaque
%"class.std::num_put" = type { %"class.std::locale::facet.base", [4 x i8] }
%"class.std::num_get" = type { %"class.std::locale::facet.base", [4 x i8] }

@_ZStL8__ioinit = internal global %"class.std::ios_base::Init" zeroinitializer, align 1
@__dso_handle = external hidden global i8
@_ZSt3cin = external global %"class.std::basic_istream", align 8
@_ZSt4cout = external global %"class.std::basic_ostream", align 8
@llvm.global_ctors = appending global [1 x { i32, void ()*, i8* }] [{ i32, void ()*, i8* } { i32 65535, void ()* @_GLOBAL__sub_I_354.cpp, i8* null }]

declare void @_ZNSt8ios_base4InitC1Ev(%"class.std::ios_base::Init"* nonnull align 1 dereferenceable(1)) unnamed_addr #0

; Function Attrs: nounwind
declare void @_ZNSt8ios_base4InitD1Ev(%"class.std::ios_base::Init"* nonnull align 1 dereferenceable(1)) unnamed_addr #1

; Function Attrs: nofree nounwind
declare i32 @__cxa_atexit(void (i8*)*, i8*, i8*) local_unnamed_addr #2

; Function Attrs: mustprogress nofree norecurse nosync nounwind sspstrong uwtable
define dso_local void @_Z6times2Pci(i8* nocapture %0, i32 %1) local_unnamed_addr #3 {
  %3 = icmp sgt i32 %1, 0
  br i1 %3, label %4, label %55

4:                                                ; preds = %2
  %5 = zext i32 %1 to i64
  %6 = and i64 %5, 1
  %7 = icmp eq i32 %1, 1
  br i1 %7, label %36, label %8

8:                                                ; preds = %4
  %9 = and i64 %5, 4294967294
  br label %10

10:                                               ; preds = %10, %8
  %11 = phi i64 [ 0, %8 ], [ %33, %10 ]
  %12 = phi i8 [ 0, %8 ], [ %32, %10 ]
  %13 = phi i64 [ %9, %8 ], [ %34, %10 ]
  %14 = getelementptr inbounds i8, i8* %0, i64 %11
  %15 = load i8, i8* %14, align 1, !tbaa !5
  %16 = shl i8 %15, 1
  %17 = or i8 %16, %12
  %18 = add i8 %17, -48
  %19 = icmp sgt i8 %18, 57
  %20 = add i8 %17, -58
  %21 = select i1 %19, i8 %20, i8 %18
  %22 = zext i1 %19 to i8
  store i8 %21, i8* %14, align 1, !tbaa !5
  %23 = or i64 %11, 1
  %24 = getelementptr inbounds i8, i8* %0, i64 %23
  %25 = load i8, i8* %24, align 1, !tbaa !5
  %26 = shl i8 %25, 1
  %27 = or i8 %26, %22
  %28 = add i8 %27, -48
  %29 = icmp sgt i8 %28, 57
  %30 = add i8 %27, -58
  %31 = select i1 %29, i8 %30, i8 %28
  %32 = zext i1 %29 to i8
  store i8 %31, i8* %24, align 1, !tbaa !5
  %33 = add nuw nsw i64 %11, 2
  %34 = add i64 %13, -2
  %35 = icmp eq i64 %34, 0
  br i1 %35, label %36, label %10, !llvm.loop !8

36:                                               ; preds = %10, %4
  %37 = phi i1 [ undef, %4 ], [ %29, %10 ]
  %38 = phi i64 [ 0, %4 ], [ %33, %10 ]
  %39 = phi i8 [ 0, %4 ], [ %32, %10 ]
  %40 = icmp eq i64 %6, 0
  br i1 %40, label %50, label %41

41:                                               ; preds = %36
  %42 = getelementptr inbounds i8, i8* %0, i64 %38
  %43 = load i8, i8* %42, align 1, !tbaa !5
  %44 = shl i8 %43, 1
  %45 = or i8 %44, %39
  %46 = add i8 %45, -48
  %47 = icmp sgt i8 %46, 57
  %48 = add i8 %45, -58
  %49 = select i1 %47, i8 %48, i8 %46
  store i8 %49, i8* %42, align 1, !tbaa !5
  br label %50

50:                                               ; preds = %36, %41
  %51 = phi i1 [ %37, %36 ], [ %47, %41 ]
  br i1 %51, label %52, label %55

52:                                               ; preds = %50
  %53 = sext i32 %1 to i64
  %54 = getelementptr inbounds i8, i8* %0, i64 %53
  store i8 49, i8* %54, align 1, !tbaa !5
  br label %55

55:                                               ; preds = %2, %52, %50
  ret void
}

; Function Attrs: argmemonly mustprogress nofree nosync nounwind willreturn
declare void @llvm.lifetime.start.p0i8(i64 immarg, i8* nocapture) #4

; Function Attrs: argmemonly mustprogress nofree nosync nounwind willreturn
declare void @llvm.lifetime.end.p0i8(i64 immarg, i8* nocapture) #4

; Function Attrs: mustprogress norecurse sspstrong uwtable
define dso_local i32 @main() local_unnamed_addr #5 {
  %1 = alloca i8, align 1
  %2 = alloca i32, align 4
  %3 = alloca [100 x i8], align 16
  %4 = bitcast i32* %2 to i8*
  call void @llvm.lifetime.start.p0i8(i64 4, i8* nonnull %4) #10
  %5 = call nonnull align 8 dereferenceable(16) %"class.std::basic_istream"* @_ZNSirsERi(%"class.std::basic_istream"* nonnull align 8 dereferenceable(16) @_ZSt3cin, i32* nonnull align 4 dereferenceable(4) %2)
  %6 = getelementptr inbounds [100 x i8], [100 x i8]* %3, i64 0, i64 0
  call void @llvm.lifetime.start.p0i8(i64 100, i8* nonnull %6) #10
  call void @llvm.memset.p0i8.i64(i8* noundef nonnull align 16 dereferenceable(100) %6, i8 0, i64 100, i1 false)
  store i8 49, i8* %6, align 16
  %7 = load i32, i32* %2, align 4, !tbaa !10
  %8 = icmp slt i32 %7, 1
  br i1 %8, label %69, label %9

9:                                                ; preds = %0, %66
  %10 = phi i32 [ %67, %66 ], [ 1, %0 ]
  %11 = call i64 @strlen(i8* noundef nonnull %6) #11
  %12 = trunc i64 %11 to i32
  %13 = icmp sgt i32 %12, 0
  br i1 %13, label %14, label %66

14:                                               ; preds = %9
  %15 = and i64 %11, 4294967295
  %16 = and i64 %11, 1
  %17 = icmp eq i64 %15, 1
  br i1 %17, label %46, label %18

18:                                               ; preds = %14
  %19 = sub nsw i64 %15, %16
  br label %20

20:                                               ; preds = %20, %18
  %21 = phi i64 [ 0, %18 ], [ %43, %20 ]
  %22 = phi i8 [ 0, %18 ], [ %42, %20 ]
  %23 = phi i64 [ %19, %18 ], [ %44, %20 ]
  %24 = getelementptr inbounds [100 x i8], [100 x i8]* %3, i64 0, i64 %21
  %25 = load i8, i8* %24, align 2, !tbaa !5
  %26 = shl i8 %25, 1
  %27 = or i8 %26, %22
  %28 = add i8 %27, -48
  %29 = icmp sgt i8 %28, 57
  %30 = add i8 %27, -58
  %31 = select i1 %29, i8 %30, i8 %28
  %32 = zext i1 %29 to i8
  store i8 %31, i8* %24, align 2, !tbaa !5
  %33 = or i64 %21, 1
  %34 = getelementptr inbounds [100 x i8], [100 x i8]* %3, i64 0, i64 %33
  %35 = load i8, i8* %34, align 1, !tbaa !5
  %36 = shl i8 %35, 1
  %37 = or i8 %36, %32
  %38 = add i8 %37, -48
  %39 = icmp sgt i8 %38, 57
  %40 = add i8 %37, -58
  %41 = select i1 %39, i8 %40, i8 %38
  %42 = zext i1 %39 to i8
  store i8 %41, i8* %34, align 1, !tbaa !5
  %43 = add nuw nsw i64 %21, 2
  %44 = add i64 %23, -2
  %45 = icmp eq i64 %44, 0
  br i1 %45, label %46, label %20, !llvm.loop !8

46:                                               ; preds = %20, %14
  %47 = phi i1 [ undef, %14 ], [ %39, %20 ]
  %48 = phi i64 [ 0, %14 ], [ %43, %20 ]
  %49 = phi i8 [ 0, %14 ], [ %42, %20 ]
  %50 = icmp eq i64 %16, 0
  br i1 %50, label %60, label %51

51:                                               ; preds = %46
  %52 = getelementptr inbounds [100 x i8], [100 x i8]* %3, i64 0, i64 %48
  %53 = load i8, i8* %52, align 1, !tbaa !5
  %54 = shl i8 %53, 1
  %55 = or i8 %54, %49
  %56 = add i8 %55, -48
  %57 = icmp sgt i8 %56, 57
  %58 = add i8 %55, -58
  %59 = select i1 %57, i8 %58, i8 %56
  store i8 %59, i8* %52, align 1, !tbaa !5
  br label %60

60:                                               ; preds = %46, %51
  %61 = phi i1 [ %47, %46 ], [ %57, %51 ]
  br i1 %61, label %62, label %66

62:                                               ; preds = %60
  %63 = shl i64 %11, 32
  %64 = ashr exact i64 %63, 32
  %65 = getelementptr inbounds [100 x i8], [100 x i8]* %3, i64 0, i64 %64
  store i8 49, i8* %65, align 1, !tbaa !5
  br label %66

66:                                               ; preds = %9, %60, %62
  %67 = add nuw i32 %10, 1
  %68 = icmp eq i32 %10, %7
  br i1 %68, label %69, label %9, !llvm.loop !12

69:                                               ; preds = %66, %0
  %70 = call i64 @strlen(i8* noundef nonnull %6) #11
  %71 = trunc i64 %70 to i32
  %72 = icmp sgt i32 %71, 0
  br i1 %72, label %73, label %85

73:                                               ; preds = %69
  %74 = and i64 %70, 4294967295
  br label %75

75:                                               ; preds = %73, %75
  %76 = phi i64 [ %74, %73 ], [ %84, %75 ]
  %77 = phi i32 [ %71, %73 ], [ %78, %75 ]
  %78 = add nsw i32 %77, -1
  %79 = zext i32 %78 to i64
  %80 = getelementptr inbounds [100 x i8], [100 x i8]* %3, i64 0, i64 %79
  %81 = load i8, i8* %80, align 1, !tbaa !5
  call void @llvm.lifetime.start.p0i8(i64 1, i8* nonnull %1)
  store i8 %81, i8* %1, align 1, !tbaa !5
  %82 = call nonnull align 8 dereferenceable(8) %"class.std::basic_ostream"* @_ZSt16__ostream_insertIcSt11char_traitsIcEERSt13basic_ostreamIT_T0_ES6_PKS3_l(%"class.std::basic_ostream"* nonnull align 8 dereferenceable(8) @_ZSt4cout, i8* nonnull %1, i64 1)
  call void @llvm.lifetime.end.p0i8(i64 1, i8* nonnull %1)
  %83 = icmp sgt i64 %76, 1
  %84 = add nsw i64 %76, -1
  br i1 %83, label %75, label %85, !llvm.loop !13

85:                                               ; preds = %75, %69
  %86 = load i8*, i8** bitcast (%"class.std::basic_ostream"* @_ZSt4cout to i8**), align 8, !tbaa !14
  %87 = getelementptr i8, i8* %86, i64 -24
  %88 = bitcast i8* %87 to i64*
  %89 = load i64, i64* %88, align 8
  %90 = add nsw i64 %89, 240
  %91 = getelementptr inbounds i8, i8* bitcast (%"class.std::basic_ostream"* @_ZSt4cout to i8*), i64 %90
  %92 = bitcast i8* %91 to %"class.std::ctype"**
  %93 = load %"class.std::ctype"*, %"class.std::ctype"** %92, align 8, !tbaa !16
  %94 = icmp eq %"class.std::ctype"* %93, null
  br i1 %94, label %95, label %96

95:                                               ; preds = %85
  call void @_ZSt16__throw_bad_castv() #12
  unreachable

96:                                               ; preds = %85
  %97 = getelementptr inbounds %"class.std::ctype", %"class.std::ctype"* %93, i64 0, i32 8
  %98 = load i8, i8* %97, align 8, !tbaa !20
  %99 = icmp eq i8 %98, 0
  br i1 %99, label %103, label %100

100:                                              ; preds = %96
  %101 = getelementptr inbounds %"class.std::ctype", %"class.std::ctype"* %93, i64 0, i32 9, i64 10
  %102 = load i8, i8* %101, align 1, !tbaa !5
  br label %109

103:                                              ; preds = %96
  call void @_ZNKSt5ctypeIcE13_M_widen_initEv(%"class.std::ctype"* nonnull align 8 dereferenceable(570) %93)
  %104 = bitcast %"class.std::ctype"* %93 to i8 (%"class.std::ctype"*, i8)***
  %105 = load i8 (%"class.std::ctype"*, i8)**, i8 (%"class.std::ctype"*, i8)*** %104, align 8, !tbaa !14
  %106 = getelementptr inbounds i8 (%"class.std::ctype"*, i8)*, i8 (%"class.std::ctype"*, i8)** %105, i64 6
  %107 = load i8 (%"class.std::ctype"*, i8)*, i8 (%"class.std::ctype"*, i8)** %106, align 8
  %108 = call signext i8 %107(%"class.std::ctype"* nonnull align 8 dereferenceable(570) %93, i8 signext 10)
  br label %109

109:                                              ; preds = %100, %103
  %110 = phi i8 [ %102, %100 ], [ %108, %103 ]
  %111 = call nonnull align 8 dereferenceable(8) %"class.std::basic_ostream"* @_ZNSo3putEc(%"class.std::basic_ostream"* nonnull align 8 dereferenceable(8) @_ZSt4cout, i8 signext %110)
  %112 = call nonnull align 8 dereferenceable(8) %"class.std::basic_ostream"* @_ZNSo5flushEv(%"class.std::basic_ostream"* nonnull align 8 dereferenceable(8) %111)
  call void @llvm.lifetime.end.p0i8(i64 100, i8* nonnull %6) #10
  call void @llvm.lifetime.end.p0i8(i64 4, i8* nonnull %4) #10
  ret i32 0
}

declare nonnull align 8 dereferenceable(16) %"class.std::basic_istream"* @_ZNSirsERi(%"class.std::basic_istream"* nonnull align 8 dereferenceable(16), i32* nonnull align 4 dereferenceable(4)) local_unnamed_addr #0

; Function Attrs: argmemonly mustprogress nofree nounwind willreturn writeonly
declare void @llvm.memset.p0i8.i64(i8* nocapture writeonly, i8, i64, i1 immarg) #6

; Function Attrs: argmemonly mustprogress nofree nounwind readonly willreturn
declare i64 @strlen(i8* nocapture) local_unnamed_addr #7

declare nonnull align 8 dereferenceable(8) %"class.std::basic_ostream"* @_ZSt16__ostream_insertIcSt11char_traitsIcEERSt13basic_ostreamIT_T0_ES6_PKS3_l(%"class.std::basic_ostream"* nonnull align 8 dereferenceable(8), i8*, i64) local_unnamed_addr #0

declare nonnull align 8 dereferenceable(8) %"class.std::basic_ostream"* @_ZNSo3putEc(%"class.std::basic_ostream"* nonnull align 8 dereferenceable(8), i8 signext) local_unnamed_addr #0

declare nonnull align 8 dereferenceable(8) %"class.std::basic_ostream"* @_ZNSo5flushEv(%"class.std::basic_ostream"* nonnull align 8 dereferenceable(8)) local_unnamed_addr #0

; Function Attrs: noreturn
declare void @_ZSt16__throw_bad_castv() local_unnamed_addr #8

declare void @_ZNKSt5ctypeIcE13_M_widen_initEv(%"class.std::ctype"* nonnull align 8 dereferenceable(570)) local_unnamed_addr #0

; Function Attrs: sspstrong uwtable
define internal void @_GLOBAL__sub_I_354.cpp() #9 section ".text.startup" {
  tail call void @_ZNSt8ios_base4InitC1Ev(%"class.std::ios_base::Init"* nonnull align 1 dereferenceable(1) @_ZStL8__ioinit)
  %1 = tail call i32 @__cxa_atexit(void (i8*)* bitcast (void (%"class.std::ios_base::Init"*)* @_ZNSt8ios_base4InitD1Ev to void (i8*)*), i8* getelementptr inbounds (%"class.std::ios_base::Init", %"class.std::ios_base::Init"* @_ZStL8__ioinit, i64 0, i32 0), i8* nonnull @__dso_handle) #10
  ret void
}


!llvm.module.flags = !{!0, !1, !2, !3}
!llvm.ident = !{!4}

!0 = !{i32 1, !"wchar_size", i32 4}
!1 = !{i32 7, !"PIC Level", i32 2}
!2 = !{i32 7, !"PIE Level", i32 2}
!3 = !{i32 7, !"uwtable", i32 1}
!4 = !{!"clang version 13.0.0"}
!5 = !{!6, !6, i64 0}
!6 = !{!"omnipotent char", !7, i64 0}
!7 = !{!"Simple C++ TBAA"}
!8 = distinct !{!8, !9}
!9 = !{!"llvm.loop.mustprogress"}
!10 = !{!11, !11, i64 0}
!11 = !{!"int", !6, i64 0}
!12 = distinct !{!12, !9}
!13 = distinct !{!13, !9}
!14 = !{!15, !15, i64 0}
!15 = !{!"vtable pointer", !7, i64 0}
!16 = !{!17, !18, i64 240}
!17 = !{!"_ZTSSt9basic_iosIcSt11char_traitsIcEE", !18, i64 216, !6, i64 224, !19, i64 225, !18, i64 232, !18, i64 240, !18, i64 248, !18, i64 256}
!18 = !{!"any pointer", !6, i64 0}
!19 = !{!"bool", !6, i64 0}
!20 = !{!21, !6, i64 56}
!21 = !{!"_ZTSSt5ctypeIcE", !18, i64 16, !19, i64 24, !18, i64 32, !18, i64 40, !18, i64 48, !6, i64 56, !6, i64 57, !6, i64 313, !6, i64 569}
